target datalayout = "e-m:e-p270:32:32-p271:32:32-p272:64:64-i64:64-i128:128-f80:128-n8:16:32:64-S128"
target triple = "x86_64-pc-linux-gnu"

%union.pthread_mutex_t = type { %struct.__pthread_mutex_s }
%struct.__pthread_mutex_s = type { i32, i32, i32, i32, i32, i16, i16, %struct.__pthread_internal_list }
%struct.__pthread_internal_list = type { ptr, ptr }
%struct.slurm_acct_gather_interconnect_ops = type { ptr, ptr, ptr, ptr, ptr }

@g_context_lock = internal global %union.pthread_mutex_t zeroinitializer, align 8
@.str.1 = private unnamed_addr constant [29 x i8] c"%s: pthread_mutex_lock(): %m\00", align 1
@g_context_num = internal global i32 -1, align 4
@ops = internal global ptr null, align 8
@g_context = internal global ptr null, align 8
@.str.7 = private unnamed_addr constant [31 x i8] c"%s: pthread_mutex_unlock(): %m\00", align 1
@__func__.acct_gather_interconnect_g_get_data = private unnamed_addr constant [36 x i8] c"acct_gather_interconnect_g_get_data\00", align 1

; Function Attrs: nounwind uwtable
define dso_local i32 @acct_gather_interconnect_g_get_data(ptr noundef %0) #0 {
  %2 = alloca i32, align 4
  %3 = alloca ptr, align 8
  %4 = alloca i32, align 4
  %5 = alloca i32, align 4
  %6 = alloca i32, align 4
  %7 = alloca i32, align 4
  %8 = alloca i32, align 4
  store ptr %0, ptr %3, align 8
  call void @llvm.lifetime.start.p0(i64 4, ptr %4) #6
  call void @llvm.lifetime.start.p0(i64 4, ptr %5) #6
  store i32 0, ptr %5, align 4
  %9 = load i32, ptr @g_context_num, align 4
  %10 = icmp ne i32 %9, 0
  br i1 %10, label %12, label %11

11:                                               ; preds = %1
  store i32 0, ptr %2, align 4
  store i32 1, ptr %6, align 4
  br label %63

12:                                               ; preds = %1
  br label %13

13:                                               ; preds = %12
  call void @llvm.lifetime.start.p0(i64 4, ptr %7) #6
  %14 = call i32 @pthread_mutex_lock(ptr noundef @g_context_lock) #6
  store i32 %14, ptr %7, align 4
  %15 = load i32, ptr %7, align 4
  %16 = icmp ne i32 %15, 0
  br i1 %16, label %17, label %20

17:                                               ; preds = %13
  %18 = load i32, ptr %7, align 4
  %19 = call ptr @__errno_location() #7
  store i32 %18, ptr %19, align 4
  call void (ptr, ...) @fatal_abort(ptr noundef @.str.1, ptr noundef @__func__.acct_gather_interconnect_g_get_data) #8
  unreachable

20:                                               ; preds = %13
  call void @llvm.lifetime.end.p0(i64 4, ptr %7) #6
  br label %21

21:                                               ; preds = %20
  br label %22

22:                                               ; preds = %21
  store i32 0, ptr %4, align 4
  br label %23

23:                                               ; preds = %47, %22
  %24 = load i32, ptr %4, align 4
  %25 = load i32, ptr @g_context_num, align 4
  %26 = icmp slt i32 %24, %25
  br i1 %26, label %27, label %50

27:                                               ; preds = %23
  %28 = load ptr, ptr @g_context, align 8
  %29 = load i32, ptr %4, align 4
  %30 = sext i32 %29 to i64
  %31 = getelementptr inbounds ptr, ptr %28, i64 %30
  %32 = load ptr, ptr %31, align 8
  %33 = icmp ne ptr %32, null
  br i1 %33, label %35, label %34

34:                                               ; preds = %27
  br label %47

35:                                               ; preds = %27
  %36 = load ptr, ptr @ops, align 8
  %37 = load i32, ptr %4, align 4
  %38 = sext i32 %37 to i64
  %39 = getelementptr inbounds %struct.slurm_acct_gather_interconnect_ops, ptr %36, i64 %38
  %40 = getelementptr inbounds nuw %struct.slurm_acct_gather_interconnect_ops, ptr %39, i32 0, i32 4
  %41 = load ptr, ptr %40, align 8
  %42 = load ptr, ptr %3, align 8
  %43 = call i32 %41(ptr noundef %42)
  %44 = icmp ne i32 %43, 0
  br i1 %44, label %45, label %46

45:                                               ; preds = %35
  br label %51

46:                                               ; preds = %35
  br label %47

47:                                               ; preds = %46, %34
  %48 = load i32, ptr %4, align 4
  %49 = add nsw i32 %48, 1
  store i32 %49, ptr %4, align 4
  br label %23, !llvm.loop !19

50:                                               ; preds = %23
  br label %51

51:                                               ; preds = %50, %45
  br label %52

52:                                               ; preds = %51
  call void @llvm.lifetime.start.p0(i64 4, ptr %8) #6
  %53 = call i32 @pthread_mutex_unlock(ptr noundef @g_context_lock) #6
  store i32 %53, ptr %8, align 4
  %54 = load i32, ptr %8, align 4
  %55 = icmp ne i32 %54, 0
  br i1 %55, label %56, label %59

56:                                               ; preds = %52
  %57 = load i32, ptr %8, align 4
  %58 = call ptr @__errno_location() #7
  store i32 %57, ptr %58, align 4
  call void (ptr, ...) @fatal_abort(ptr noundef @.str.7, ptr noundef @__func__.acct_gather_interconnect_g_get_data) #8
  unreachable

59:                                               ; preds = %52
  call void @llvm.lifetime.end.p0(i64 4, ptr %8) #6
  br label %60

60:                                               ; preds = %59
  br label %61

61:                                               ; preds = %60
  %62 = load i32, ptr %5, align 4
  store i32 %62, ptr %2, align 4
  store i32 1, ptr %6, align 4
  br label %63

63:                                               ; preds = %61, %11
  call void @llvm.lifetime.end.p0(i64 4, ptr %5) #6
  call void @llvm.lifetime.end.p0(i64 4, ptr %4) #6
  %64 = load i32, ptr %2, align 4
  ret i32 %64
}