; Function Attrs: nounwind uwtable
define dso_local noundef i32 @acct_gather_interconnect_g_get_data(ptr noundef %0) local_unnamed_addr #0 {
  %2 = load i32, ptr @g_context_num, align 4
  %.not = icmp eq i32 %2, 0
  br i1 %.not, label %26, label %3

3:                                                ; preds = %1
  %4 = tail call i32 @pthread_mutex_lock(ptr noundef nonnull @g_context_lock) #7
  %.not12 = icmp eq i32 %4, 0
  br i1 %.not12, label %.preheader, label %7

.preheader:                                       ; preds = %3
  %5 = load i32, ptr @g_context_num, align 4
  %6 = icmp sgt i32 %5, 0
  br i1 %6, label %.lr.ph.preheader, label %._crit_edge

.lr.ph.preheader:                                 ; preds = %.preheader
  %.pre19 = load ptr, ptr @g_context, align 8
  br label %.lr.ph

7:                                                ; preds = %3
  %8 = tail call ptr @__errno_location() #8
  store i32 %4, ptr %8, align 4
  tail call void (ptr, ...) @fatal_abort(ptr noundef nonnull @.str.1, ptr noundef nonnull @__func__.acct_gather_interconnect_g_get_data) #9
  unreachable

.lr.ph:                                           ; preds = %.lr.ph.preheader, %18
  %9 = phi i32 [ %5, %.lr.ph.preheader ], [ %19, %18 ]
  %10 = phi ptr [ %.pre19, %.lr.ph.preheader ], [ %20, %18 ]
  %indvars.iv = phi i64 [ 0, %.lr.ph.preheader ], [ %indvars.iv.next, %18 ]
  %11 = getelementptr inbounds nuw ptr, ptr %10, i64 %indvars.iv
  %12 = load ptr, ptr %11, align 8
  %.not13 = icmp eq ptr %12, null
  br i1 %.not13, label %18, label %13

13:                                               ; preds = %.lr.ph
  %14 = load ptr, ptr @ops, align 8
  %15 = getelementptr inbounds nuw %struct.slurm_acct_gather_interconnect_ops, ptr %14, i64 %indvars.iv, i32 4
  %16 = load ptr, ptr %15, align 8
  %17 = tail call i32 %16(ptr noundef %0) #7
  %.not14 = icmp eq i32 %17, 0
  br i1 %.not14, label %._crit_edge20, label %._crit_edge

._crit_edge20:                                    ; preds = %13
  %.pre = load ptr, ptr @g_context, align 8
  %.pre21 = load i32, ptr @g_context_num, align 4
  br label %18

18:                                               ; preds = %._crit_edge20, %.lr.ph
  %19 = phi i32 [ %.pre21, %._crit_edge20 ], [ %9, %.lr.ph ]
  %20 = phi ptr [ %.pre, %._crit_edge20 ], [ %10, %.lr.ph ]
  %indvars.iv.next = add nuw nsw i64 %indvars.iv, 1
  %21 = sext i32 %19 to i64
  %22 = icmp slt i64 %indvars.iv.next, %21
  br i1 %22, label %.lr.ph, label %._crit_edge, !llvm.loop !17

._crit_edge:                                      ; preds = %18, %13, %.preheader
  %23 = tail call i32 @pthread_mutex_unlock(ptr noundef nonnull @g_context_lock) #7
  %.not15 = icmp eq i32 %23, 0
  br i1 %.not15, label %26, label %24

24:                                               ; preds = %._crit_edge
  %25 = tail call ptr @__errno_location() #8
  store i32 %23, ptr %25, align 4
  tail call void (ptr, ...) @fatal_abort(ptr noundef nonnull @.str.7, ptr noundef nonnull @__func__.acct_gather_interconnect_g_get_data) #9
  unreachable

26:                                               ; preds = %._crit_edge, %1
  ret i32 0
}